; ModuleID = 'bench/luau/original/Unifiable.cpp.ll'
source_filename = "bench/luau/original/Unifiable.cpp.ll"
target datalayout = "e-m:e-p270:32:32-p271:32:32-p272:64:64-i64:64-i128:128-f80:128-n8:16:32:64-S128"
target triple = "x86_64-pc-linux-gnu"

@_ZN4Luau9UnifiableL9nextIndexE = internal unnamed_addr global i32 0, align 4
@_ZN4Luau9Unifiable5Error9nextIndexE = dso_local local_unnamed_addr global i32 0, align 4

@_ZN4Luau9Unifiable5ErrorC1Ev = dso_local unnamed_addr alias void (ptr), ptr @_ZN4Luau9Unifiable5ErrorC2Ev

; Function Attrs: mustprogress nofree norecurse nosync nounwind willreturn memory(readwrite, argmem: none, inaccessiblemem: none) uwtable
define dso_local noundef range(i32 -2147483647, -2147483648) i32 @_ZN4Luau9Unifiable10freshIndexEv() local_unnamed_addr #0 {
  %1 = load i32, ptr @_ZN4Luau9UnifiableL9nextIndexE, align 4
  %2 = add nsw i32 %1, 1
  store i32 %2, ptr @_ZN4Luau9UnifiableL9nextIndexE, align 4
  ret i32 %2
}

; Function Attrs: mustprogress nofree norecurse nosync nounwind willreturn memory(readwrite, argmem: write, inaccessiblemem: none) uwtable
define dso_local void @_ZN4Luau9Unifiable5ErrorC2Ev(ptr nocapture noundef nonnull writeonly align 4 dereferenceable(4) %0) unnamed_addr #1 align 2 {
  %2 = load i32, ptr @_ZN4Luau9Unifiable5Error9nextIndexE, align 4
  %3 = add nsw i32 %2, 1
  store i32 %3, ptr @_ZN4Luau9Unifiable5Error9nextIndexE, align 4
  store i32 %3, ptr %0, align 4
  ret void
}


!llvm.module.flags = !{!0, !1, !2, !3, !4}

!0 = !{i32 1, !"wchar_size", i32 4}
!1 = !{i32 8, !"PIC Level", i32 2}
!2 = !{i32 7, !"PIE Level", i32 2}
!3 = !{i32 7, !"uwtable", i32 2}
!4 = !{i32 7, !"frame-pointer", i32 2}
